target datalayout = "e-m:e-p270:32:32-p271:32:32-p272:64:64-i64:64-i128:128-f80:128-n8:16:32:64-S128"
target triple = "x86_64-pc-linux-gnu"

%struct.png_info_def = type { i32, i32, i32, i64, ptr, i16, i16, i8, i8, i8, i8, i8, i8, i8, i8, [8 x i8], %struct.png_colorspace, ptr, ptr, i32, i32, i32, ptr, %struct.png_time_struct, %struct.png_color_8_struct, ptr, %struct.png_color_16_struct, %struct.png_color_16_struct, i32, i32, i8, i32, i32, i8, i32, ptr, ptr, ptr, ptr, i32, i32, ptr, ptr, i8, i8, i32, ptr, i32, ptr, i32, i8, ptr, ptr, ptr }
%struct.png_colorspace = type { i32, %struct.png_xy, %struct.png_XYZ, i16, i16 }
%struct.png_xy = type { i32, i32, i32, i32, i32, i32, i32, i32 }
%struct.png_XYZ = type { i32, i32, i32, i32, i32, i32, i32, i32, i32 }
%struct.png_time_struct = type { i16, i8, i8, i8, i8, i8 }
%struct.png_color_8_struct = type { i8, i8, i8, i8, i8 }
%struct.png_color_16_struct = type { i8, i16, i16, i16, i16 }

@.str.31 = private unnamed_addr constant [32 x i8] c"Invalid iCCP compression method\00", align 1
@.str.32 = private unnamed_addr constant [42 x i8] c"Insufficient memory to process iCCP chunk\00", align 1
@.str.33 = private unnamed_addr constant [44 x i8] c"Insufficient memory to process iCCP profile\00", align 1

; Function Attrs: nounwind uwtable
define void @png_set_iCCP(ptr noalias noundef %0, ptr noalias noundef %1, ptr noundef %2, i32 noundef %3, ptr noundef %4, i32 noundef %5) #0 {
  %7 = alloca ptr, align 8
  %8 = alloca ptr, align 8
  %9 = alloca ptr, align 8
  %10 = alloca i32, align 4
  %11 = alloca ptr, align 8
  %12 = alloca i32, align 4
  %13 = alloca ptr, align 8
  %14 = alloca ptr, align 8
  %15 = alloca i64, align 8
  %16 = alloca i32, align 4
  store ptr %0, ptr %7, align 8
  store ptr %1, ptr %8, align 8
  store ptr %2, ptr %9, align 8
  store i32 %3, ptr %10, align 4
  store ptr %4, ptr %11, align 8
  store i32 %5, ptr %12, align 4
  %17 = load ptr, ptr %7, align 8
  %18 = icmp eq ptr %17, null
  br i1 %18, label %28, label %19

19:                                               ; preds = %6
  %20 = load ptr, ptr %8, align 8
  %21 = icmp eq ptr %20, null
  br i1 %21, label %28, label %22

22:                                               ; preds = %19
  %23 = load ptr, ptr %9, align 8
  %24 = icmp eq ptr %23, null
  br i1 %24, label %28, label %25

25:                                               ; preds = %22
  %26 = load ptr, ptr %11, align 8
  %27 = icmp eq ptr %26, null
  br i1 %27, label %28, label %29

28:                                               ; preds = %25, %22, %19, %6
  br label %107

29:                                               ; preds = %25
  %30 = load i32, ptr %10, align 4
  %31 = icmp ne i32 %30, 0
  br i1 %31, label %32, label %34

32:                                               ; preds = %29
  %33 = load ptr, ptr %7, align 8
  call void @png_app_error(ptr noundef %33, ptr noundef @.str.31)
  br label %34

34:                                               ; preds = %32, %29
  %35 = load ptr, ptr %7, align 8
  %36 = load ptr, ptr %8, align 8
  %37 = getelementptr inbounds %struct.png_info_def, ptr %36, i32 0, i32 16
  %38 = load ptr, ptr %9, align 8
  %39 = load i32, ptr %12, align 4
  %40 = load ptr, ptr %11, align 8
  %41 = load ptr, ptr %8, align 8
  %42 = getelementptr inbounds %struct.png_info_def, ptr %41, i32 0, i32 8
  %43 = load i8, ptr %42, align 1
  %44 = zext i8 %43 to i32
  %45 = call i32 @png_colorspace_set_ICC(ptr noundef %35, ptr noundef %37, ptr noundef %38, i32 noundef %39, ptr noundef %40, i32 noundef %44)
  store i32 %45, ptr %16, align 4
  %46 = load ptr, ptr %7, align 8
  %47 = load ptr, ptr %8, align 8
  call void @png_colorspace_sync_info(ptr noundef %46, ptr noundef %47)
  %48 = load i32, ptr %16, align 4
  %49 = icmp eq i32 %48, 0
  br i1 %49, label %50, label %51

50:                                               ; preds = %34
  br label %107

51:                                               ; preds = %34
  %52 = load ptr, ptr %8, align 8
  %53 = getelementptr inbounds %struct.png_info_def, ptr %52, i32 0, i32 16
  %54 = getelementptr inbounds %struct.png_colorspace, ptr %53, i32 0, i32 4
  %55 = load i16, ptr %54, align 2
  %56 = zext i16 %55 to i32
  %57 = or i32 %56, 24
  %58 = trunc i32 %57 to i16
  store i16 %58, ptr %54, align 2
  %59 = load ptr, ptr %9, align 8
  %60 = call i64 @strlen(ptr noundef %59) #6
  %61 = add i64 %60, 1
  store i64 %61, ptr %15, align 8
  %62 = load ptr, ptr %7, align 8
  %63 = load i64, ptr %15, align 8
  %64 = call noalias ptr @png_malloc_warn(ptr noundef %62, i64 noundef %63)
  store ptr %64, ptr %13, align 8
  %65 = load ptr, ptr %13, align 8
  %66 = icmp eq ptr %65, null
  br i1 %66, label %67, label %69

67:                                               ; preds = %51
  %68 = load ptr, ptr %7, align 8
  call void @png_benign_error(ptr noundef %68, ptr noundef @.str.32)
  br label %107

69:                                               ; preds = %51
  %70 = load ptr, ptr %13, align 8
  %71 = load ptr, ptr %9, align 8
  %72 = load i64, ptr %15, align 8
  call void @llvm.memcpy.p0.p0.i64(ptr align 1 %70, ptr align 1 %71, i64 %72, i1 false)
  %73 = load ptr, ptr %7, align 8
  %74 = load i32, ptr %12, align 4
  %75 = zext i32 %74 to i64
  %76 = call noalias ptr @png_malloc_warn(ptr noundef %73, i64 noundef %75)
  store ptr %76, ptr %14, align 8
  %77 = load ptr, ptr %14, align 8
  %78 = icmp eq ptr %77, null
  br i1 %78, label %79, label %83

79:                                               ; preds = %69
  %80 = load ptr, ptr %7, align 8
  %81 = load ptr, ptr %13, align 8
  call void @png_free(ptr noundef %80, ptr noundef %81)
  %82 = load ptr, ptr %7, align 8
  call void @png_benign_error(ptr noundef %82, ptr noundef @.str.33)
  br label %107

83:                                               ; preds = %69
  %84 = load ptr, ptr %14, align 8
  %85 = load ptr, ptr %11, align 8
  %86 = load i32, ptr %12, align 4
  %87 = zext i32 %86 to i64
  call void @llvm.memcpy.p0.p0.i64(ptr align 1 %84, ptr align 1 %85, i64 %87, i1 false)
  %88 = load ptr, ptr %7, align 8
  %89 = load ptr, ptr %8, align 8
  call void @png_free_data(ptr noundef %88, ptr noundef %89, i32 noundef 16, i32 noundef 0)
  %90 = load i32, ptr %12, align 4
  %91 = load ptr, ptr %8, align 8
  %92 = getelementptr inbounds %struct.png_info_def, ptr %91, i32 0, i32 19
  store i32 %90, ptr %92, align 8
  %93 = load ptr, ptr %13, align 8
  %94 = load ptr, ptr %8, align 8
  %95 = getelementptr inbounds %struct.png_info_def, ptr %94, i32 0, i32 17
  store ptr %93, ptr %95, align 8
  %96 = load ptr, ptr %14, align 8
  %97 = load ptr, ptr %8, align 8
  %98 = getelementptr inbounds %struct.png_info_def, ptr %97, i32 0, i32 18
  store ptr %96, ptr %98, align 8
  %99 = load ptr, ptr %8, align 8
  %100 = getelementptr inbounds %struct.png_info_def, ptr %99, i32 0, i32 45
  %101 = load i32, ptr %100, align 4
  %102 = or i32 %101, 16
  store i32 %102, ptr %100, align 4
  %103 = load ptr, ptr %8, align 8
  %104 = getelementptr inbounds %struct.png_info_def, ptr %103, i32 0, i32 2
  %105 = load i32, ptr %104, align 8
  %106 = or i32 %105, 4096
  store i32 %106, ptr %104, align 8
  br label %107

107:                                              ; preds = %83, %79, %67, %50, %28
  ret void
}