; Function Attrs: nounwind uwtable
define void @png_set_iCCP(ptr noalias noundef %0, ptr noalias noundef %1, ptr noundef %2, i32 noundef %3, ptr noundef %4, i32 noundef %5) local_unnamed_addr #2 {
  %7 = insertelement <4 x ptr> poison, ptr %0, i64 0
  %8 = insertelement <4 x ptr> %7, ptr %1, i64 1
  %9 = insertelement <4 x ptr> %8, ptr %2, i64 2
  %10 = insertelement <4 x ptr> %9, ptr %4, i64 3
  %11 = icmp eq <4 x ptr> %10, zeroinitializer
  %12 = bitcast <4 x i1> %11 to i4
  %.not52 = icmp eq i4 %12, 0
  br i1 %.not52, label %13, label %46

13:                                               ; preds = %6
  %.not = icmp eq i32 %3, 0
  br i1 %.not, label %15, label %14

14:                                               ; preds = %13
  tail call void @png_app_error(ptr noundef nonnull %0, ptr noundef nonnull @.str.31) #12
  br label %15

15:                                               ; preds = %14, %13
  %16 = getelementptr inbounds i8, ptr %1, i64 52
  %17 = getelementptr inbounds i8, ptr %1, i64 37
  %18 = load i8, ptr %17, align 1
  %19 = zext i8 %18 to i32
  %20 = tail call i32 @png_colorspace_set_ICC(ptr noundef nonnull %0, ptr noundef nonnull %16, ptr noundef nonnull %2, i32 noundef %5, ptr noundef nonnull %4, i32 noundef %19) #12
  tail call void @png_colorspace_sync_info(ptr noundef nonnull %0, ptr noundef nonnull %1) #12
  %21 = icmp eq i32 %20, 0
  br i1 %21, label %46, label %22

22:                                               ; preds = %15
  %23 = getelementptr inbounds i8, ptr %1, i64 126
  %24 = load i16, ptr %23, align 2
  %25 = or i16 %24, 24
  store i16 %25, ptr %23, align 2
  %26 = tail call i64 @strlen(ptr noundef nonnull dereferenceable(1) %2) #13
  %27 = add i64 %26, 1
  %28 = tail call noalias ptr @png_malloc_warn(ptr noundef nonnull %0, i64 noundef %27) #12
  %29 = icmp eq ptr %28, null
  br i1 %29, label %30, label %31

30:                                               ; preds = %22
  tail call void @png_benign_error(ptr noundef nonnull %0, ptr noundef nonnull @.str.32) #12
  br label %46

31:                                               ; preds = %22
  tail call void @llvm.memcpy.p0.p0.i64(ptr nonnull align 1 %28, ptr nonnull align 1 %2, i64 %27, i1 false)
  %32 = zext i32 %5 to i64
  %33 = tail call noalias ptr @png_malloc_warn(ptr noundef nonnull %0, i64 noundef %32) #12
  %34 = icmp eq ptr %33, null
  br i1 %34, label %35, label %36

35:                                               ; preds = %31
  tail call void @png_free(ptr noundef nonnull %0, ptr noundef nonnull %28) #12
  tail call void @png_benign_error(ptr noundef nonnull %0, ptr noundef nonnull @.str.33) #12
  br label %46

36:                                               ; preds = %31
  tail call void @llvm.memcpy.p0.p0.i64(ptr nonnull align 1 %33, ptr nonnull align 1 %4, i64 %32, i1 false)
  tail call void @png_free_data(ptr noundef nonnull %0, ptr noundef nonnull %1, i32 noundef 16, i32 noundef 0) #12
  %37 = getelementptr inbounds i8, ptr %1, i64 144
  store i32 %5, ptr %37, align 8
  %38 = getelementptr inbounds i8, ptr %1, i64 128
  store ptr %28, ptr %38, align 8
  %39 = getelementptr inbounds i8, ptr %1, i64 136
  store ptr %33, ptr %39, align 8
  %40 = getelementptr inbounds i8, ptr %1, i64 300
  %41 = load i32, ptr %40, align 4
  %42 = or i32 %41, 16
  store i32 %42, ptr %40, align 4
  %43 = getelementptr inbounds i8, ptr %1, i64 8
  %44 = load i32, ptr %43, align 8
  %45 = or i32 %44, 4096
  store i32 %45, ptr %43, align 8
  br label %46

46:                                               ; preds = %15, %6, %36, %35, %30
  ret void
}